Certificate:
    Data:
        Version: 3 (0x2)
        Serial Number: 0 (0x0)
        Signature Algorithm: sha256WithRSAEncryption
        Issuer: CN=SRK_1_sha256_2048
        Validity
            Not Before: Aug 26 21:01:23 2019 GMT
            Not After : Aug 23 21:01:23 2029 GMT
        Subject: CN=CSF_1_sha256_2048
        Subject Public Key Info:
            Public Key Algorithm: rsaEncryption
                RSA Public-Key: (2048 bit)
                Modulus:
                    00:d4:d0:fe:63:b9:05:8e:0a:7b:27:0d:4f:f4:86:
                    5d:1a:d5:01:5e:06:bf:26:15:f7:fa:b0:58:56:b4:
                    df:d4:de:ac:f9:30:85:db:3e:1f:4e:e0:4a:e1:b1:
                    0b:ac:fe:44:43:35:91:12:6e:2b:42:9e:b5:85:13:
                    89:33:b6:e5:f6:b3:a6:d2:3f:ff:31:0b:fb:ef:6e:
                    36:c1:ca:d9:a3:ec:8d:f0:da:89:0c:4e:b4:8d:8e:
                    e8:55:49:7c:05:35:bf:09:f6:0d:ea:33:82:be:ed:
                    b2:19:76:e9:7a:c3:5d:2a:48:fb:9a:72:db:08:8b:
                    54:35:29:69:54:bf:92:c2:5c:d9:97:42:db:ef:be:
                    bb:b9:fc:5e:ff:a8:a8:f0:55:42:62:2a:a9:00:78:
                    b3:ed:8b:72:97:df:77:a9:19:a5:0f:3a:cc:4f:2f:
                    3e:02:39:a2:82:33:55:20:23:5e:20:33:db:42:29:
                    7e:59:1a:cd:f2:b2:ca:8f:35:ad:9b:5c:72:0a:64:
                    9f:c1:bd:6e:c8:51:48:4b:17:29:55:58:30:f1:7b:
                    f5:53:df:84:6b:79:30:db:31:48:6c:e2:bd:53:5a:
                    d4:a0:e6:fb:9c:04:aa:01:c2:0f:11:c2:17:f7:28:
                    bc:ad:d1:66:cf:8b:b4:01:25:78:5b:e9:9e:f7:a7:
                    0a:87
                Exponent: 65537 (0x10001)
        X509v3 extensions:
            X509v3 Basic Constraints: 
                CA:FALSE
            X509v3 Subject Key Identifier: 
                3B:07:48:AE:CF:6A:F4:1F:05:F0:1E:C8:EB:DC:B9:3B:87:7B:3E:35
            X509v3 Authority Key Identifier: 
                keyid:FF:C6:9B:F6:A1:2D:29:72:47:1F:55:76:F1:E5:C5:24:86:4E:BB:7A

    Signature Algorithm: sha256WithRSAEncryption
         4e:20:60:16:06:7f:b0:8f:c1:26:b3:b2:2b:c6:b1:d8:18:4c:
         49:c1:0f:f0:47:89:b3:55:2b:7a:3e:12:50:2c:38:ef:bd:cd:
         cf:28:14:1b:22:fc:66:9f:5d:93:d3:15:be:52:7c:24:c8:da:
         63:4d:e5:21:c5:38:fa:70:be:41:99:2b:ef:55:d2:73:7e:0f:
         38:70:76:ba:fe:6c:67:3e:f0:25:9f:c2:c5:b6:66:d5:be:65:
         2a:7c:32:b6:94:0c:a8:40:19:bb:07:24:a0:5c:e0:c1:f0:8e:
         80:83:4e:e7:d2:a9:47:11:c0:e3:b8:a6:5b:95:f9:42:1f:56:
         91:28:8d:75:8a:13:d9:de:b9:2b:9a:95:31:a5:a1:75:ad:2c:
         bd:b1:f4:cc:15:9a:79:9d:64:96:7c:a8:77:33:a6:d4:4c:c7:
         c6:80:48:ce:74:fc:28:ad:a8:a0:e0:70:58:71:8c:17:a4:ce:
         d6:7d:e3:90:71:40:7d:0c:3f:2e:9b:d3:bc:a1:01:aa:9a:82:
         32:8b:f5:c7:f2:5a:dc:a4:ad:51:fd:a0:f2:55:8f:c4:46:ed:
         c4:ae:ca:e6:e5:57:81:a7:a4:3a:4e:68:af:7c:18:11:ff:a8:
         3c:86:87:6e:b8:ff:c1:03:9b:ad:a5:b6:9b:8a:01:7c:ed:34:
         0f:d1:17:0e
-----BEGIN CERTIFICATE-----
MIIDADCCAeigAwIBAgIBADANBgkqhkiG9w0BAQsFADAcMRowGAYDVQQDFBFTUktf
MV9zaGEyNTZfMjA0ODAeFw0xOTA4MjYyMTAxMjNaFw0yOTA4MjMyMTAxMjNaMBwx
GjAYBgNVBAMMEUNTRl8xX3NoYTI1Nl8yMDQ4MIIBIjANBgkqhkiG9w0BAQEFAAOC
AQ8AMIIBCgKCAQEA1ND+Y7kFjgp7Jw1P9IZdGtUBXga/JhX3+rBYVrTf1N6s+TCF
2z4fTuBK4bELrP5EQzWREm4rQp61hROJM7bl9rOm0j//MQv77242wcrZo+yN8NqJ
DE60jY7oVUl8BTW/CfYN6jOCvu2yGXbpesNdKkj7mnLbCItUNSlpVL+SwlzZl0Lb
7767ufxe/6io8FVCYiqpAHiz7Ytyl993qRmlDzrMTy8+AjmigjNVICNeIDPbQil+
WRrN8rLKjzWtm1xyCmSfwb1uyFFISxcpVVgw8Xv1U9+Ea3kw2zFIbOK9U1rUoOb7
nASqAcIPEcIX9yi8rdFmz4u0ASV4W+me96cKhwIDAQABo00wSzAJBgNVHRMEAjAA
MB0GA1UdDgQWBBQ7B0iuz2r0HwXwHsjr3Lk7h3s+NTAfBgNVHSMEGDAWgBT/xpv2
oS0pckcfVXbx5cUkhk67ejANBgkqhkiG9w0BAQsFAAOCAQEATiBgFgZ/sI/BJrOy
K8ax2BhMScEP8EeJs1Urej4SUCw4773NzygUGyL8Zp9dk9MVvlJ8JMjaY03lIcU4
+nC+QZkr71XSc34POHB2uv5sZz7wJZ/CxbZm1b5lKnwytpQMqEAZuwckoFzgwfCO
gINO59KpRxHA47imW5X5Qh9WkSiNdYoT2d65K5qVMaWhda0svbH0zBWaeZ1klnyo
dzOm1EzHxoBIznT8KK2ooOBwWHGMF6TO1n3jkHFAfQw/LpvTvKEBqpqCMov1x/Ja
3KStUf2g8lWPxEbtxK7K5uVXgaekOk5or3wYEf+oPIaHbrj/wQObraW2m4oBfO00
D9EXDg==
-----END CERTIFICATE-----
