Certificate:
    Data:
        Version: 3 (0x2)
        Serial Number: 1 (0x1)
        Signature Algorithm: sha256WithRSAEncryption
        Issuer: CN=SRK_1_sha256_2048
        Validity
            Not Before: Aug 26 21:01:23 2019 GMT
            Not After : Aug 23 21:01:23 2029 GMT
        Subject: CN=IMG_1_sha256_2048
        Subject Public Key Info:
            Public Key Algorithm: rsaEncryption
                RSA Public-Key: (2048 bit)
                Modulus:
                    00:c2:7d:9d:92:e0:dd:1b:46:e2:e5:43:67:cb:79:
                    ed:d1:25:18:68:59:68:62:b5:6f:b5:ec:31:1f:df:
                    07:35:0c:41:fb:5e:a5:99:ec:87:2a:ed:5b:93:88:
                    da:47:b2:2d:0c:be:a6:bc:f5:02:ce:da:ab:99:2a:
                    f2:aa:f8:b4:d5:3b:76:36:b7:18:d9:48:3a:d8:25:
                    b4:81:cb:1d:7e:b8:3c:cf:cc:51:8b:29:4e:e4:86:
                    2f:82:75:48:6f:9a:bc:52:2a:d5:cb:ed:b2:ad:0a:
                    df:d1:e2:1f:96:8b:70:60:97:38:e5:ba:aa:52:7f:
                    65:72:05:2f:fd:db:79:e6:2b:24:4c:66:ca:09:2f:
                    3e:12:79:97:3c:81:bf:f9:97:80:2f:7f:0b:ca:1d:
                    3a:4f:63:49:d2:6a:6b:0d:47:de:c9:36:12:e7:f6:
                    10:fd:99:cd:f1:22:ac:0a:fa:6c:82:29:f7:3b:60:
                    ac:b4:69:cb:b4:83:62:a0:12:50:15:53:21:7f:d3:
                    b1:69:aa:a5:a2:97:81:d8:81:4e:af:24:2b:dd:b5:
                    56:7a:a0:ec:c9:7c:5c:2b:d2:f9:1f:09:4b:91:52:
                    7e:55:65:a8:05:63:b3:b1:39:4a:23:96:2a:69:18:
                    a4:21:7c:58:43:3d:4e:df:b8:0c:46:fe:ae:92:30:
                    3d:9f
                Exponent: 65537 (0x10001)
        X509v3 extensions:
            X509v3 Basic Constraints: 
                CA:FALSE
            X509v3 Subject Key Identifier: 
                D2:AE:D6:08:C3:77:09:E3:17:12:14:CE:C1:EF:A4:47:C9:4E:E1:40
            X509v3 Authority Key Identifier: 
                keyid:FF:C6:9B:F6:A1:2D:29:72:47:1F:55:76:F1:E5:C5:24:86:4E:BB:7A

    Signature Algorithm: sha256WithRSAEncryption
         1b:44:27:d1:8b:0e:bf:18:27:c9:55:3a:89:e6:9b:e1:3c:8b:
         ca:61:28:e8:60:b1:1a:85:48:91:42:14:c4:6f:32:67:0b:db:
         3e:4d:ff:32:33:7a:ac:d7:77:96:28:1f:c5:60:9b:6a:dc:09:
         cb:d9:65:89:23:c9:7d:1c:c9:99:a7:46:bc:9e:0c:d1:96:98:
         a8:0b:91:30:94:16:11:34:48:78:94:b2:f7:c2:48:86:cb:75:
         ff:1a:9b:0c:c8:13:f7:cf:6d:f7:79:8a:43:73:bf:5d:8b:66:
         6e:7e:0f:19:69:53:42:4e:a1:d9:57:63:47:21:e9:a6:e0:f9:
         14:b1:c5:89:e0:50:30:d1:2c:06:07:c4:ef:5f:3c:5e:24:f5:
         16:15:e9:8b:d7:00:9e:3b:56:26:3a:b0:91:cb:ca:76:dc:c1:
         e7:aa:ff:a9:eb:92:d6:05:cd:0e:8d:20:b1:9c:cf:45:c0:5b:
         82:18:1c:75:3d:be:bf:3c:68:08:05:4a:3d:41:38:ec:de:9f:
         d6:1b:0a:c7:f4:77:04:c2:04:96:b8:21:c3:59:a2:fb:67:45:
         9d:16:62:e7:41:f8:a3:8f:fb:a7:f2:10:b5:b6:00:02:a0:6e:
         b6:37:38:50:e0:bc:41:8c:98:9b:df:1a:c7:01:8d:a0:ed:34:
         9c:40:13:0b
-----BEGIN CERTIFICATE-----
MIIDADCCAeigAwIBAgIBATANBgkqhkiG9w0BAQsFADAcMRowGAYDVQQDFBFTUktf
MV9zaGEyNTZfMjA0ODAeFw0xOTA4MjYyMTAxMjNaFw0yOTA4MjMyMTAxMjNaMBwx
GjAYBgNVBAMMEUlNR18xX3NoYTI1Nl8yMDQ4MIIBIjANBgkqhkiG9w0BAQEFAAOC
AQ8AMIIBCgKCAQEAwn2dkuDdG0bi5UNny3nt0SUYaFloYrVvtewxH98HNQxB+16l
meyHKu1bk4jaR7ItDL6mvPUCztqrmSryqvi01Tt2NrcY2Ug62CW0gcsdfrg8z8xR
iylO5IYvgnVIb5q8UirVy+2yrQrf0eIflotwYJc45bqqUn9lcgUv/dt55iskTGbK
CS8+EnmXPIG/+ZeAL38Lyh06T2NJ0mprDUfeyTYS5/YQ/ZnN8SKsCvpsgin3O2Cs
tGnLtINioBJQFVMhf9OxaaqlopeB2IFOryQr3bVWeqDsyXxcK9L5HwlLkVJ+VWWo
BWOzsTlKI5YqaRikIXxYQz1O37gMRv6ukjA9nwIDAQABo00wSzAJBgNVHRMEAjAA
MB0GA1UdDgQWBBTSrtYIw3cJ4xcSFM7B76RHyU7hQDAfBgNVHSMEGDAWgBT/xpv2
oS0pckcfVXbx5cUkhk67ejANBgkqhkiG9w0BAQsFAAOCAQEAG0Qn0YsOvxgnyVU6
ieab4TyLymEo6GCxGoVIkUIUxG8yZwvbPk3/MjN6rNd3ligfxWCbatwJy9lliSPJ
fRzJmadGvJ4M0ZaYqAuRMJQWETRIeJSy98JIhst1/xqbDMgT989t93mKQ3O/XYtm
bn4PGWlTQk6h2VdjRyHppuD5FLHFieBQMNEsBgfE7188XiT1FhXpi9cAnjtWJjqw
kcvKdtzB56r/qeuS1gXNDo0gsZzPRcBbghgcdT2+vzxoCAVKPUE47N6f1hsKx/R3
BMIElrghw1mi+2dFnRZi50H4o4/7p/IQtbYAAqButjc4UOC8QYyYm98axwGNoO00
nEATCw==
-----END CERTIFICATE-----
